target datalayout = "e-m:e-p270:32:32-p271:32:32-p272:64:64-i64:64-i128:128-f80:128-n8:16:32:64-S128"
target triple = "x86_64-pc-linux-gnu"

%struct.optstruct = type { ptr, ptr, ptr, i64, i32, i32, i32, i32, ptr, ptr, ptr }

@.str.1 = private unnamed_addr constant [8 x i8] c"tempdir\00", align 1
@.str.2 = private unnamed_addr constant [8 x i8] c"sigtool\00", align 1
@.str.3 = private unnamed_addr constant [40 x i8] c"Can't create temporary directory name.\0A\00", align 1
@.str.4 = private unnamed_addr constant [48 x i8] c"Can't create temporary directory for scan: %s.\0A\00", align 1

; Function Attrs: nounwind uwtable
define dso_local ptr @createTempDir(ptr noundef %0) #0 {
  %2 = alloca ptr, align 8
  %3 = alloca ptr, align 8
  %4 = alloca ptr, align 8
  %5 = alloca ptr, align 8
  store ptr %0, ptr %2, align 8
  store ptr null, ptr %4, align 8
  store ptr null, ptr %5, align 8
  %6 = load ptr, ptr %2, align 8
  %7 = icmp ne ptr %6, null
  br i1 %7, label %8, label %18

8:                                                ; preds = %1
  %9 = load ptr, ptr %2, align 8
  %10 = call ptr @optget(ptr noundef %9, ptr noundef @.str.1)
  store ptr %10, ptr %3, align 8
  %11 = getelementptr inbounds %struct.optstruct, ptr %10, i32 0, i32 4
  %12 = load i32, ptr %11, align 8
  %13 = icmp ne i32 %12, 0
  br i1 %13, label %14, label %18

14:                                               ; preds = %8
  %15 = load ptr, ptr %3, align 8
  %16 = getelementptr inbounds %struct.optstruct, ptr %15, i32 0, i32 2
  %17 = load ptr, ptr %16, align 8
  store ptr %17, ptr %4, align 8
  br label %20

18:                                               ; preds = %8, %1
  %19 = call ptr @cli_gettmpdir()
  store ptr %19, ptr %4, align 8
  br label %20

20:                                               ; preds = %18, %14
  %21 = load ptr, ptr %4, align 8
  %22 = call ptr @cli_gentemp_with_prefix(ptr noundef %21, ptr noundef @.str.2)
  store ptr %22, ptr %5, align 8
  %23 = load ptr, ptr %5, align 8
  %24 = icmp eq ptr null, %23
  br i1 %24, label %25, label %27

25:                                               ; preds = %20
  %26 = call i32 (i32, ptr, ...) @logg(i32 noundef 5, ptr noundef @.str.3)
  br label %36

27:                                               ; preds = %20
  %28 = load ptr, ptr %5, align 8
  %29 = call i32 @mkdir(ptr noundef %28, i32 noundef 448) #11
  %30 = icmp ne i32 %29, 0
  br i1 %30, label %31, label %35

31:                                               ; preds = %27
  %32 = load ptr, ptr %4, align 8
  %33 = call i32 (i32, ptr, ...) @logg(i32 noundef 5, ptr noundef @.str.4, ptr noundef %32)
  %34 = load ptr, ptr %5, align 8
  call void @free(ptr noundef %34) #11
  store ptr null, ptr %5, align 8
  br label %35

35:                                               ; preds = %31, %27
  br label %36

36:                                               ; preds = %35, %25
  %37 = load ptr, ptr %5, align 8
  ret ptr %37
}