; Function Attrs: nounwind uwtable
define dso_local ptr @createTempDir(ptr noundef %0) local_unnamed_addr #0 {
  %.not = icmp eq ptr %0, null
  br i1 %.not, label %9, label %2

2:                                                ; preds = %1
  %3 = tail call ptr @optget(ptr noundef nonnull %0, ptr noundef nonnull @.str.1) #25
  %4 = getelementptr inbounds i8, ptr %3, i64 32
  %5 = load i32, ptr %4, align 8
  %.not12 = icmp eq i32 %5, 0
  br i1 %.not12, label %9, label %6

6:                                                ; preds = %2
  %7 = getelementptr inbounds i8, ptr %3, i64 16
  %8 = load ptr, ptr %7, align 8
  br label %11

9:                                                ; preds = %2, %1
  %10 = tail call ptr @cli_gettmpdir() #25
  br label %11

11:                                               ; preds = %9, %6
  %.09 = phi ptr [ %8, %6 ], [ %10, %9 ]
  %12 = tail call ptr @cli_gentemp_with_prefix(ptr noundef %.09, ptr noundef nonnull @.str.2) #25
  %13 = icmp eq ptr %12, null
  br i1 %13, label %14, label %16

14:                                               ; preds = %11
  %15 = tail call i32 (i32, ptr, ...) @logg(i32 noundef 5, ptr noundef nonnull @.str.3) #25
  br label %20

16:                                               ; preds = %11
  %17 = tail call i32 @mkdir(ptr noundef nonnull %12, i32 noundef 448) #25
  %.not13 = icmp eq i32 %17, 0
  br i1 %.not13, label %20, label %18

18:                                               ; preds = %16
  %19 = tail call i32 (i32, ptr, ...) @logg(i32 noundef 5, ptr noundef nonnull @.str.4, ptr noundef %.09) #25
  tail call void @free(ptr noundef nonnull %12) #25
  br label %20

20:                                               ; preds = %16, %18, %14
  %.0 = phi ptr [ null, %14 ], [ null, %18 ], [ %12, %16 ]
  ret ptr %.0
}